; Function Attrs: mustprogress nofree nounwind willreturn memory(write, argmem: readwrite, inaccessiblemem: readwrite) uwtable
define ptr @Abc_AigUpdateStart(ptr noundef captures(none) initializes((72, 88)) %0, ptr noundef writeonly captures(none) initializes((0, 8)) %1) local_unnamed_addr #11 {
  %3 = tail call noalias dereferenceable_or_null(16) ptr @malloc(i64 noundef 16) #20
  %4 = getelementptr inbounds nuw i8, ptr %3, i64 4
  store i32 0, ptr %4, align 4
  store i32 1000, ptr %3, align 8
  %5 = tail call noalias dereferenceable_or_null(8000) ptr @malloc(i64 noundef 8000) #20
  %6 = getelementptr inbounds nuw i8, ptr %3, i64 8
  store ptr %5, ptr %6, align 8
  %7 = getelementptr inbounds nuw i8, ptr %0, i64 72
  store ptr %3, ptr %7, align 8
  %8 = tail call noalias dereferenceable_or_null(16) ptr @malloc(i64 noundef 16) #20
  %9 = getelementptr inbounds nuw i8, ptr %8, i64 4
  store i32 0, ptr %9, align 4
  store i32 1000, ptr %8, align 8
  %10 = tail call noalias dereferenceable_or_null(8000) ptr @malloc(i64 noundef 8000) #20
  %11 = getelementptr inbounds nuw i8, ptr %8, i64 8
  store ptr %10, ptr %11, align 8
  %12 = getelementptr inbounds nuw i8, ptr %0, i64 80
  store ptr %8, ptr %12, align 8
  store ptr %8, ptr %1, align 8
  %13 = load ptr, ptr %7, align 8
  ret ptr %13
}